; Function Attrs: mustprogress nofree nounwind willreturn memory(write, argmem: none, inaccessiblemem: readwrite) uwtable
define noalias noundef ptr @Mio_SopVar1(i32 noundef %0) local_unnamed_addr #1 {
Vec_IntPush.exit:
  %1 = tail call noalias dereferenceable_or_null(16) ptr @malloc(i64 noundef 16) #6
  %2 = getelementptr inbounds nuw i8, ptr %1, i64 4
  store i32 16, ptr %1, align 8, !tbaa !14
  %3 = tail call noalias dereferenceable_or_null(64) ptr @malloc(i64 noundef 64) #6
  %4 = getelementptr inbounds nuw i8, ptr %1, i64 8
  store ptr %3, ptr %4, align 8, !tbaa !10
  %5 = shl i32 %0, 1
  %6 = shl nuw i32 2, %5
  store i32 1, ptr %2, align 4, !tbaa !3
  store i32 %6, ptr %3, align 4, !tbaa !11
  ret ptr %1
}